target datalayout = "e-m:e-p270:32:32-p271:32:32-p272:64:64-i64:64-i128:128-f80:128-n8:16:32:64-S128"
target triple = "x86_64-pc-linux-gnu"

%struct.VkComponentMapping = type { i32, i32, i32, i32 }
%struct.SDL_AtomicInt = type { i32 }
%struct.VulkanRenderer = type { ptr, ptr, %struct.VkPhysicalDeviceProperties2, %struct.VkPhysicalDeviceDriverProperties, %struct.VkPhysicalDeviceFeatures, ptr, i8, i8, i8, i8, i8, i8, i32, i32, %struct.VulkanExtensions, i8, i8, i8, i8, ptr, %struct.VkPhysicalDeviceMemoryProperties, i8, ptr, i32, i32, i32, ptr, ptr, i32, i32, %struct.VulkanFencePool, ptr, ptr, ptr, ptr, ptr, ptr, ptr, i32, i32, ptr, i32, i32, %struct.SDL_AtomicInt, i32, ptr, i32, i32, ptr, i32, i32, ptr, i32, i32, ptr, i32, i32, ptr, i32, i32, ptr, i32, i32, ptr, i32, i32, ptr, ptr, ptr, ptr, ptr, ptr, ptr, ptr, ptr, ptr, ptr, i8, ptr, i32, i32, ptr, ptr, ptr, ptr, ptr, ptr, ptr, ptr, ptr, ptr, ptr, ptr, ptr, ptr, ptr, ptr, ptr, ptr, ptr, ptr, ptr, ptr, ptr, ptr, ptr, ptr, ptr, ptr, ptr, ptr, ptr, ptr, ptr, ptr, ptr, ptr, ptr, ptr, ptr, ptr, ptr, ptr, ptr, ptr, ptr, ptr, ptr, ptr, ptr, ptr, ptr, ptr, ptr, ptr, ptr, ptr, ptr, ptr, ptr, ptr, ptr, ptr, ptr, ptr, ptr, ptr, ptr, ptr, ptr, ptr, ptr, ptr, ptr, ptr, ptr, ptr, ptr, ptr, ptr, ptr, ptr, ptr, ptr, ptr, ptr, ptr, ptr, ptr, ptr, ptr, ptr, ptr, ptr, ptr, ptr, ptr, ptr, ptr, ptr, ptr, ptr, ptr, ptr, ptr, ptr, ptr, ptr, ptr, ptr, ptr }
%struct.VkPhysicalDeviceProperties2 = type { i32, ptr, %struct.VkPhysicalDeviceProperties }
%struct.VkPhysicalDeviceProperties = type { i32, i32, i32, i32, i32, [256 x i8], [16 x i8], %struct.VkPhysicalDeviceLimits, %struct.VkPhysicalDeviceSparseProperties }
%struct.VkPhysicalDeviceLimits = type { i32, i32, i32, i32, i32, i32, i32, i32, i32, i32, i32, i64, i64, i32, i32, i32, i32, i32, i32, i32, i32, i32, i32, i32, i32, i32, i32, i32, i32, i32, i32, i32, i32, i32, i32, i32, i32, i32, i32, i32, i32, i32, i32, i32, i32, i32, i32, i32, i32, i32, i32, i32, [3 x i32], i32, [3 x i32], i32, i32, i32, i32, i32, float, float, i32, [2 x i32], [2 x float], i32, i64, i64, i64, i64, i32, i32, i32, i32, float, float, i32, i32, i32, i32, i32, i32, i32, i32, i32, i32, i32, i32, i32, i32, i32, i32, float, i32, i32, i32, i32, [2 x float], [2 x float], float, float, i32, i32, i64, i64, i64 }
%struct.VkPhysicalDeviceSparseProperties = type { i32, i32, i32, i32, i32 }
%struct.VkPhysicalDeviceDriverProperties = type { i32, ptr, i32, [256 x i8], [256 x i8], %struct.VkConformanceVersion }
%struct.VkConformanceVersion = type { i8, i8, i8, i8 }
%struct.VkPhysicalDeviceFeatures = type { i32, i32, i32, i32, i32, i32, i32, i32, i32, i32, i32, i32, i32, i32, i32, i32, i32, i32, i32, i32, i32, i32, i32, i32, i32, i32, i32, i32, i32, i32, i32, i32, i32, i32, i32, i32, i32, i32, i32, i32, i32, i32, i32, i32, i32, i32, i32, i32, i32, i32, i32, i32, i32, i32, i32 }
%struct.VulkanExtensions = type { i8, i8, i8, i8, i8 }
%struct.VkPhysicalDeviceMemoryProperties = type { i32, [32 x %struct.VkMemoryType], i32, [16 x %struct.VkMemoryHeap] }
%struct.VkMemoryType = type { i32, i32 }
%struct.VkMemoryHeap = type { i64, i32 }
%struct.VulkanFencePool = type { ptr, ptr, i32, i32 }
%struct.SDL_GPUTextureCreateInfo = type { i32, i32, i32, i32, i32, i32, i32, i32, i32 }
%struct.VulkanTexture = type { ptr, i32, ptr, ptr, ptr, %struct.VkComponentMapping, i32, i32, i32, i32, ptr, i8, %struct.SDL_AtomicInt }
%struct.VkImageViewCreateInfo = type { i32, ptr, i32, ptr, i32, i32, %struct.VkComponentMapping, %struct.VkImageSubresourceRange }
%struct.VkImageSubresourceRange = type { i32, i32, i32, i32, i32 }

@.str.50 = private unnamed_addr constant [6 x i8] c"%s %s\00", align 1
@.str.51 = private unnamed_addr constant [28 x i8] c"VK_ERROR_OUT_OF_HOST_MEMORY\00", align 1
@.str.52 = private unnamed_addr constant [30 x i8] c"VK_ERROR_OUT_OF_DEVICE_MEMORY\00", align 1
@.str.53 = private unnamed_addr constant [25 x i8] c"VK_ERROR_FRAGMENTED_POOL\00", align 1
@.str.54 = private unnamed_addr constant [28 x i8] c"VK_ERROR_OUT_OF_POOL_MEMORY\00", align 1
@.str.55 = private unnamed_addr constant [31 x i8] c"VK_ERROR_INITIALIZATION_FAILED\00", align 1
@.str.56 = private unnamed_addr constant [27 x i8] c"VK_ERROR_LAYER_NOT_PRESENT\00", align 1
@.str.57 = private unnamed_addr constant [31 x i8] c"VK_ERROR_EXTENSION_NOT_PRESENT\00", align 1
@.str.58 = private unnamed_addr constant [29 x i8] c"VK_ERROR_FEATURE_NOT_PRESENT\00", align 1
@.str.59 = private unnamed_addr constant [26 x i8] c"VK_ERROR_TOO_MANY_OBJECTS\00", align 1
@.str.60 = private unnamed_addr constant [21 x i8] c"VK_ERROR_DEVICE_LOST\00", align 1
@.str.61 = private unnamed_addr constant [29 x i8] c"VK_ERROR_INCOMPATIBLE_DRIVER\00", align 1
@.str.62 = private unnamed_addr constant [25 x i8] c"VK_ERROR_OUT_OF_DATE_KHR\00", align 1
@.str.63 = private unnamed_addr constant [26 x i8] c"VK_ERROR_SURFACE_LOST_KHR\00", align 1
@.str.64 = private unnamed_addr constant [45 x i8] c"VK_ERROR_FULL_SCREEN_EXCLUSIVE_MODE_LOST_EXT\00", align 1
@.str.65 = private unnamed_addr constant [18 x i8] c"VK_SUBOPTIMAL_KHR\00", align 1
@.str.66 = private unnamed_addr constant [34 x i8] c"VK_ERROR_NATIVE_WINDOW_IN_USE_KHR\00", align 1
@.str.67 = private unnamed_addr constant [27 x i8] c"VK_ERROR_INVALID_SHADER_NV\00", align 1
@.str.68 = private unnamed_addr constant [20 x i8] c"Unhandled VkResult!\00", align 1
@.str.134 = private unnamed_addr constant [18 x i8] c"vkCreateImageView\00", align 1

; Function Attrs: inlinehint nounwind uwtable
define internal ptr @VkErrorMessages(i32 noundef %0) #5 {
  %2 = alloca ptr, align 8
  %3 = alloca i32, align 4
  store i32 %0, ptr %3, align 4
  %4 = load i32, ptr %3, align 4
  switch i32 %4, label %22 [
    i32 -1, label %5
    i32 -2, label %6
    i32 -12, label %7
    i32 -1000069000, label %8
    i32 -3, label %9
    i32 -6, label %10
    i32 -7, label %11
    i32 -8, label %12
    i32 -10, label %13
    i32 -4, label %14
    i32 -9, label %15
    i32 -1000001004, label %16
    i32 -1000000000, label %17
    i32 -1000255000, label %18
    i32 1000001003, label %19
    i32 -1000000001, label %20
    i32 -1000012000, label %21
  ]

5:                                                ; preds = %1
  store ptr @.str.51, ptr %2, align 8
  br label %23

6:                                                ; preds = %1
  store ptr @.str.52, ptr %2, align 8
  br label %23

7:                                                ; preds = %1
  store ptr @.str.53, ptr %2, align 8
  br label %23

8:                                                ; preds = %1
  store ptr @.str.54, ptr %2, align 8
  br label %23

9:                                                ; preds = %1
  store ptr @.str.55, ptr %2, align 8
  br label %23

10:                                               ; preds = %1
  store ptr @.str.56, ptr %2, align 8
  br label %23

11:                                               ; preds = %1
  store ptr @.str.57, ptr %2, align 8
  br label %23

12:                                               ; preds = %1
  store ptr @.str.58, ptr %2, align 8
  br label %23

13:                                               ; preds = %1
  store ptr @.str.59, ptr %2, align 8
  br label %23

14:                                               ; preds = %1
  store ptr @.str.60, ptr %2, align 8
  br label %23

15:                                               ; preds = %1
  store ptr @.str.61, ptr %2, align 8
  br label %23

16:                                               ; preds = %1
  store ptr @.str.62, ptr %2, align 8
  br label %23

17:                                               ; preds = %1
  store ptr @.str.63, ptr %2, align 8
  br label %23

18:                                               ; preds = %1
  store ptr @.str.64, ptr %2, align 8
  br label %23

19:                                               ; preds = %1
  store ptr @.str.65, ptr %2, align 8
  br label %23

20:                                               ; preds = %1
  store ptr @.str.66, ptr %2, align 8
  br label %23

21:                                               ; preds = %1
  store ptr @.str.67, ptr %2, align 8
  br label %23

22:                                               ; preds = %1
  store ptr @.str.68, ptr %2, align 8
  br label %23

23:                                               ; preds = %22, %21, %20, %19, %18, %17, %16, %15, %14, %13, %12, %11, %10, %9, %8, %7, %6, %5
  %24 = load ptr, ptr %2, align 8
  ret ptr %24
}

; Function Attrs: nounwind uwtable
define internal zeroext i1 @VULKAN_INTERNAL_CreateSubresourceView(ptr noundef %0, ptr noundef %1, ptr noundef %2, i32 noundef %3, i32 noundef %4, ptr noundef byval(%struct.VkComponentMapping) align 8 %5, ptr noundef %6) #0 {
  %8 = alloca i1, align 1
  %9 = alloca ptr, align 8
  %10 = alloca ptr, align 8
  %11 = alloca ptr, align 8
  %12 = alloca i32, align 4
  %13 = alloca i32, align 4
  %14 = alloca ptr, align 8
  %15 = alloca i32, align 4
  %16 = alloca %struct.VkImageViewCreateInfo, align 8
  %17 = alloca i32, align 4
  store ptr %0, ptr %9, align 8
  store ptr %1, ptr %10, align 8
  store ptr %2, ptr %11, align 8
  store i32 %3, ptr %12, align 4
  store i32 %4, ptr %13, align 4
  store ptr %6, ptr %14, align 8
  call void @llvm.lifetime.start.p0(i64 4, ptr %15) #9
  call void @llvm.lifetime.start.p0(i64 80, ptr %16) #9
  %18 = getelementptr inbounds nuw %struct.VkImageViewCreateInfo, ptr %16, i32 0, i32 0
  store i32 15, ptr %18, align 8
  %19 = getelementptr inbounds nuw %struct.VkImageViewCreateInfo, ptr %16, i32 0, i32 1
  store ptr null, ptr %19, align 8
  %20 = getelementptr inbounds nuw %struct.VkImageViewCreateInfo, ptr %16, i32 0, i32 2
  store i32 0, ptr %20, align 8
  %21 = load ptr, ptr %11, align 8
  %22 = getelementptr inbounds nuw %struct.VulkanTexture, ptr %21, i32 0, i32 3
  %23 = load ptr, ptr %22, align 8
  %24 = getelementptr inbounds nuw %struct.VkImageViewCreateInfo, ptr %16, i32 0, i32 3
  store ptr %23, ptr %24, align 8
  %25 = load ptr, ptr %10, align 8
  %26 = getelementptr inbounds nuw %struct.SDL_GPUTextureCreateInfo, ptr %25, i32 0, i32 1
  %27 = load i32, ptr %26, align 4
  %28 = zext i32 %27 to i64
  %29 = getelementptr inbounds nuw [105 x i32], ptr @SDLToVK_TextureFormat, i64 0, i64 %28
  %30 = load i32, ptr %29, align 4
  %31 = getelementptr inbounds nuw %struct.VkImageViewCreateInfo, ptr %16, i32 0, i32 5
  store i32 %30, ptr %31, align 4
  %32 = getelementptr inbounds nuw %struct.VkImageViewCreateInfo, ptr %16, i32 0, i32 6
  call void @llvm.memcpy.p0.p0.i64(ptr align 8 %32, ptr align 8 %5, i64 16, i1 false)
  %33 = load ptr, ptr %11, align 8
  %34 = getelementptr inbounds nuw %struct.VulkanTexture, ptr %33, i32 0, i32 6
  %35 = load i32, ptr %34, align 8
  %36 = getelementptr inbounds nuw %struct.VkImageViewCreateInfo, ptr %16, i32 0, i32 7
  %37 = getelementptr inbounds nuw %struct.VkImageSubresourceRange, ptr %36, i32 0, i32 0
  store i32 %35, ptr %37, align 8
  %38 = load i32, ptr %13, align 4
  %39 = getelementptr inbounds nuw %struct.VkImageViewCreateInfo, ptr %16, i32 0, i32 7
  %40 = getelementptr inbounds nuw %struct.VkImageSubresourceRange, ptr %39, i32 0, i32 1
  store i32 %38, ptr %40, align 4
  %41 = getelementptr inbounds nuw %struct.VkImageViewCreateInfo, ptr %16, i32 0, i32 7
  %42 = getelementptr inbounds nuw %struct.VkImageSubresourceRange, ptr %41, i32 0, i32 2
  store i32 1, ptr %42, align 8
  %43 = load i32, ptr %12, align 4
  %44 = getelementptr inbounds nuw %struct.VkImageViewCreateInfo, ptr %16, i32 0, i32 7
  %45 = getelementptr inbounds nuw %struct.VkImageSubresourceRange, ptr %44, i32 0, i32 3
  store i32 %43, ptr %45, align 4
  %46 = getelementptr inbounds nuw %struct.VkImageViewCreateInfo, ptr %16, i32 0, i32 7
  %47 = getelementptr inbounds nuw %struct.VkImageSubresourceRange, ptr %46, i32 0, i32 4
  store i32 1, ptr %47, align 8
  %48 = load ptr, ptr %10, align 8
  %49 = getelementptr inbounds nuw %struct.SDL_GPUTextureCreateInfo, ptr %48, i32 0, i32 0
  %50 = load i32, ptr %49, align 4
  %51 = icmp eq i32 %50, 2
  %52 = select i1 %51, i32 2, i32 1
  %53 = getelementptr inbounds nuw %struct.VkImageViewCreateInfo, ptr %16, i32 0, i32 4
  store i32 %52, ptr %53, align 8
  %54 = load ptr, ptr %9, align 8
  %55 = getelementptr inbounds nuw %struct.VulkanRenderer, ptr %54, i32 0, i32 144
  %56 = load ptr, ptr %55, align 8
  %57 = load ptr, ptr %9, align 8
  %58 = getelementptr inbounds nuw %struct.VulkanRenderer, ptr %57, i32 0, i32 5
  %59 = load ptr, ptr %58, align 8
  %60 = load ptr, ptr %14, align 8
  %61 = call i32 %56(ptr noundef %59, ptr noundef %16, ptr noundef null, ptr noundef %60)
  store i32 %61, ptr %15, align 4
  %62 = load i32, ptr %15, align 4
  %63 = icmp ne i32 %62, 0
  br i1 %63, label %64, label %84

64:                                               ; preds = %7
  %65 = load ptr, ptr %14, align 8
  store ptr null, ptr %65, align 8
  br label %66

66:                                               ; preds = %64
  %67 = load i32, ptr %15, align 4
  %68 = icmp ne i32 %67, 0
  br i1 %68, label %69, label %81

69:                                               ; preds = %66
  %70 = load ptr, ptr %9, align 8
  %71 = getelementptr inbounds nuw %struct.VulkanRenderer, ptr %70, i32 0, i32 10
  %72 = load i8, ptr %71, align 4, !range !3, !noundef !4
  %73 = trunc i8 %72 to i1
  br i1 %73, label %74, label %77

74:                                               ; preds = %69
  %75 = load i32, ptr %15, align 4
  %76 = call ptr @VkErrorMessages(i32 noundef %75)
  call void (i32, ptr, ...) @SDL_LogError_REAL(i32 noundef 9, ptr noundef @.str.50, ptr noundef @.str.134, ptr noundef %76)
  br label %77

77:                                               ; preds = %74, %69
  %78 = load i32, ptr %15, align 4
  %79 = call ptr @VkErrorMessages(i32 noundef %78)
  %80 = call zeroext i1 (ptr, ...) @SDL_SetError_REAL(ptr noundef @.str.50, ptr noundef @.str.134, ptr noundef %79)
  store i1 false, ptr %8, align 1
  store i32 1, ptr %17, align 4
  br label %85

81:                                               ; preds = %66
  br label %82

82:                                               ; preds = %81
  br label %83

83:                                               ; preds = %82
  br label %84

84:                                               ; preds = %83, %7
  store i1 true, ptr %8, align 1
  store i32 1, ptr %17, align 4
  br label %85

85:                                               ; preds = %84, %77
  call void @llvm.lifetime.end.p0(i64 80, ptr %16) #9
  call void @llvm.lifetime.end.p0(i64 4, ptr %15) #9
  %86 = load i1, ptr %8, align 1
  ret i1 %86
}