; Function Attrs: nounwind uwtable
define internal fastcc noundef zeroext i1 @VULKAN_INTERNAL_CreateSubresourceView(ptr noundef readonly captures(none) %0, i32 %.0.val, i32 %.4.val, ptr %.24.val, i32 %.56.val, i32 noundef %1, i32 noundef %2, ptr noundef readonly byval(%struct.VkComponentMapping) align 8 captures(none) %3, ptr noundef %4) unnamed_addr #0 {
  %6 = alloca %struct.VkImageViewCreateInfo, align 8
  call void @llvm.lifetime.start.p0(i64 80, ptr nonnull %6) #13
  store i32 15, ptr %6, align 8
  %7 = getelementptr inbounds nuw i8, ptr %6, i64 8
  store ptr null, ptr %7, align 8
  %8 = getelementptr inbounds nuw i8, ptr %6, i64 16
  store i32 0, ptr %8, align 8
  %9 = getelementptr inbounds nuw i8, ptr %6, i64 24
  store ptr %.24.val, ptr %9, align 8
  %10 = zext i32 %.4.val to i64
  %11 = getelementptr inbounds nuw [105 x i32], ptr @SDLToVK_TextureFormat, i64 0, i64 %10
  %12 = load i32, ptr %11, align 4
  %13 = getelementptr inbounds nuw i8, ptr %6, i64 36
  store i32 %12, ptr %13, align 4
  %14 = getelementptr inbounds nuw i8, ptr %6, i64 40
  call void @llvm.memcpy.p0.p0.i64(ptr noundef nonnull align 8 dereferenceable(16) %14, ptr noundef nonnull align 8 dereferenceable(16) %3, i64 16, i1 false)
  %15 = getelementptr inbounds nuw i8, ptr %6, i64 56
  store i32 %.56.val, ptr %15, align 8
  %16 = getelementptr inbounds nuw i8, ptr %6, i64 60
  store i32 %2, ptr %16, align 4
  %17 = getelementptr inbounds nuw i8, ptr %6, i64 64
  store i32 1, ptr %17, align 8
  %18 = getelementptr inbounds nuw i8, ptr %6, i64 68
  store i32 %1, ptr %18, align 4
  %19 = getelementptr inbounds nuw i8, ptr %6, i64 72
  store i32 1, ptr %19, align 8
  %20 = icmp eq i32 %.0.val, 2
  %21 = select i1 %20, i32 2, i32 1
  %22 = getelementptr inbounds nuw i8, ptr %6, i64 32
  store i32 %21, ptr %22, align 8
  %23 = getelementptr inbounds nuw i8, ptr %0, i64 3080
  %24 = load ptr, ptr %23, align 8
  %25 = getelementptr inbounds nuw i8, ptr %0, i64 1616
  %26 = load ptr, ptr %25, align 8
  %27 = call i32 %24(ptr noundef %26, ptr noundef nonnull %6, ptr noundef null, ptr noundef %4) #13
  %.not = icmp eq i32 %27, 0
  br i1 %.not, label %69, label %28

28:                                               ; preds = %5
  store ptr null, ptr %4, align 8
  %29 = getelementptr inbounds nuw i8, ptr %0, i64 1628
  %30 = load i8, ptr %29, align 4, !range !3, !noundef !4
  %31 = trunc nuw i8 %30 to i1
  br i1 %31, label %32, label %50

32:                                               ; preds = %28
  switch i32 %27, label %49 [
    i32 -1, label %VkErrorMessages.exit
    i32 -2, label %33
    i32 -12, label %34
    i32 -1000069000, label %35
    i32 -3, label %36
    i32 -6, label %37
    i32 -7, label %38
    i32 -8, label %39
    i32 -10, label %40
    i32 -4, label %41
    i32 -9, label %42
    i32 -1000001004, label %43
    i32 -1000000000, label %44
    i32 -1000255000, label %45
    i32 1000001003, label %46
    i32 -1000000001, label %47
    i32 -1000012000, label %48
  ]

33:                                               ; preds = %32
  br label %VkErrorMessages.exit

34:                                               ; preds = %32
  br label %VkErrorMessages.exit

35:                                               ; preds = %32
  br label %VkErrorMessages.exit

36:                                               ; preds = %32
  br label %VkErrorMessages.exit

37:                                               ; preds = %32
  br label %VkErrorMessages.exit

38:                                               ; preds = %32
  br label %VkErrorMessages.exit

39:                                               ; preds = %32
  br label %VkErrorMessages.exit

40:                                               ; preds = %32
  br label %VkErrorMessages.exit

41:                                               ; preds = %32
  br label %VkErrorMessages.exit

42:                                               ; preds = %32
  br label %VkErrorMessages.exit

43:                                               ; preds = %32
  br label %VkErrorMessages.exit

44:                                               ; preds = %32
  br label %VkErrorMessages.exit

45:                                               ; preds = %32
  br label %VkErrorMessages.exit

46:                                               ; preds = %32
  br label %VkErrorMessages.exit

47:                                               ; preds = %32
  br label %VkErrorMessages.exit

48:                                               ; preds = %32
  br label %VkErrorMessages.exit

49:                                               ; preds = %32
  br label %VkErrorMessages.exit

VkErrorMessages.exit:                             ; preds = %32, %33, %34, %35, %36, %37, %38, %39, %40, %41, %42, %43, %44, %45, %46, %47, %48, %49
  %.0.i = phi ptr [ @.str.68, %49 ], [ @.str.67, %48 ], [ @.str.66, %47 ], [ @.str.65, %46 ], [ @.str.64, %45 ], [ @.str.63, %44 ], [ @.str.62, %43 ], [ @.str.61, %42 ], [ @.str.60, %41 ], [ @.str.59, %40 ], [ @.str.58, %39 ], [ @.str.57, %38 ], [ @.str.56, %37 ], [ @.str.55, %36 ], [ @.str.54, %35 ], [ @.str.53, %34 ], [ @.str.52, %33 ], [ @.str.51, %32 ]
  call void (i32, ptr, ...) @SDL_LogError_REAL(i32 noundef 9, ptr noundef nonnull @.str.50, ptr noundef nonnull @.str.134, ptr noundef nonnull %.0.i) #13
  br label %50

50:                                               ; preds = %VkErrorMessages.exit, %28
  switch i32 %27, label %67 [
    i32 -1, label %VkErrorMessages.exit17
    i32 -2, label %51
    i32 -12, label %52
    i32 -1000069000, label %53
    i32 -3, label %54
    i32 -6, label %55
    i32 -7, label %56
    i32 -8, label %57
    i32 -10, label %58
    i32 -4, label %59
    i32 -9, label %60
    i32 -1000001004, label %61
    i32 -1000000000, label %62
    i32 -1000255000, label %63
    i32 1000001003, label %64
    i32 -1000000001, label %65
    i32 -1000012000, label %66
  ]

51:                                               ; preds = %50
  br label %VkErrorMessages.exit17

52:                                               ; preds = %50
  br label %VkErrorMessages.exit17

53:                                               ; preds = %50
  br label %VkErrorMessages.exit17

54:                                               ; preds = %50
  br label %VkErrorMessages.exit17

55:                                               ; preds = %50
  br label %VkErrorMessages.exit17

56:                                               ; preds = %50
  br label %VkErrorMessages.exit17

57:                                               ; preds = %50
  br label %VkErrorMessages.exit17

58:                                               ; preds = %50
  br label %VkErrorMessages.exit17

59:                                               ; preds = %50
  br label %VkErrorMessages.exit17

60:                                               ; preds = %50
  br label %VkErrorMessages.exit17

61:                                               ; preds = %50
  br label %VkErrorMessages.exit17

62:                                               ; preds = %50
  br label %VkErrorMessages.exit17

63:                                               ; preds = %50
  br label %VkErrorMessages.exit17

64:                                               ; preds = %50
  br label %VkErrorMessages.exit17

65:                                               ; preds = %50
  br label %VkErrorMessages.exit17

66:                                               ; preds = %50
  br label %VkErrorMessages.exit17

67:                                               ; preds = %50
  br label %VkErrorMessages.exit17

VkErrorMessages.exit17:                           ; preds = %50, %51, %52, %53, %54, %55, %56, %57, %58, %59, %60, %61, %62, %63, %64, %65, %66, %67
  %.0.i16 = phi ptr [ @.str.68, %67 ], [ @.str.67, %66 ], [ @.str.66, %65 ], [ @.str.65, %64 ], [ @.str.64, %63 ], [ @.str.63, %62 ], [ @.str.62, %61 ], [ @.str.61, %60 ], [ @.str.60, %59 ], [ @.str.59, %58 ], [ @.str.58, %57 ], [ @.str.57, %56 ], [ @.str.56, %55 ], [ @.str.55, %54 ], [ @.str.54, %53 ], [ @.str.53, %52 ], [ @.str.52, %51 ], [ @.str.51, %50 ]
  %68 = call zeroext i1 (ptr, ...) @SDL_SetError_REAL(ptr noundef nonnull @.str.50, ptr noundef nonnull @.str.134, ptr noundef nonnull %.0.i16) #13
  br label %69

69:                                               ; preds = %5, %VkErrorMessages.exit17
  call void @llvm.lifetime.end.p0(i64 80, ptr nonnull %6) #13
  ret i1 %.not
}